; Function Attrs: nounwind uwtable
define internal fastcc noalias nonnull ptr @_init_l___private_Lean_Meta_Tactic_Simp_BuiltinSimprocs_Fin_0____regBuiltin_Fin_reduceXor_declare__85____x40_Lean_Meta_Tactic_Simp_BuiltinSimprocs_Fin___hyg_1398____closed__4() unnamed_addr #1 {
  %1 = load ptr, ptr @l___private_Lean_Meta_Tactic_Simp_BuiltinSimprocs_Fin_0____regBuiltin_Fin_reduceXor_declare__85____x40_Lean_Meta_Tactic_Simp_BuiltinSimprocs_Fin___hyg_1398____closed__3, align 8, !tbaa !5
  %2 = load ptr, ptr @l___private_Lean_Meta_Tactic_Simp_BuiltinSimprocs_Fin_0____regBuiltin_Fin_reduceAdd_declare__50____x40_Lean_Meta_Tactic_Simp_BuiltinSimprocs_Fin___hyg_1118____closed__11, align 8, !tbaa !5
  tail call void @lean_inc_heartbeat() #4
  %3 = tail call noalias ptr @mi_malloc_small(i64 noundef 24) #4
  %4 = icmp eq ptr %3, null
  br i1 %4, label %5, label %lean_alloc_ctor.exit

5:                                                ; preds = %0
  tail call void @lean_internal_panic_out_of_memory() #5
  unreachable

lean_alloc_ctor.exit:                             ; preds = %0
  %6 = getelementptr inbounds nuw i8, ptr %3, i64 4
  store i32 1, ptr %3, align 4, !tbaa !10
  store i32 16908312, ptr %6, align 4
  %7 = getelementptr inbounds nuw i8, ptr %3, i64 8
  store ptr %1, ptr %7, align 8, !tbaa !5
  %8 = getelementptr inbounds nuw i8, ptr %3, i64 16
  store ptr %2, ptr %8, align 8, !tbaa !5
  ret ptr %3
}